target datalayout = "e-m:e-p270:32:32-p271:32:32-p272:64:64-i64:64-i128:128-f80:128-n8:16:32:64-S128"
target triple = "x86_64-pc-linux-gnu"

@.str.8 = private unnamed_addr constant [27 x i8] c"[dc<a(cbd)(!c!b!d)>{abef}]\00", align 1

; Function Attrs: nounwind uwtable
define void @Dau_DsdTest44() #0 {
  %1 = alloca [2000 x i8], align 16
  %2 = alloca ptr, align 8
  %3 = alloca i64, align 8
  %4 = alloca i32, align 4
  call void @llvm.lifetime.start.p0(i64 2000, ptr %1) #9
  call void @llvm.lifetime.start.p0(i64 8, ptr %2) #9
  store ptr @.str.8, ptr %2, align 8, !tbaa !3
  call void @llvm.lifetime.start.p0(i64 8, ptr %3) #9
  %5 = load ptr, ptr %2, align 8, !tbaa !3
  %6 = call i64 @Dau_Dsd6ToTruth(ptr noundef %5)
  store i64 %6, ptr %3, align 8, !tbaa !33
  call void @llvm.lifetime.start.p0(i64 4, ptr %4) #9
  %7 = getelementptr inbounds [2000 x i8], ptr %1, i64 0, i64 0
  %8 = call i32 @Dau_DsdDecompose(ptr noundef %3, i32 noundef 6, i32 noundef 1, i32 noundef 1, ptr noundef %7)
  store i32 %8, ptr %4, align 4, !tbaa !8
  store i64 0, ptr %3, align 8, !tbaa !33
  store i32 0, ptr %4, align 4, !tbaa !8
  call void @llvm.lifetime.end.p0(i64 4, ptr %4) #9
  call void @llvm.lifetime.end.p0(i64 8, ptr %3) #9
  call void @llvm.lifetime.end.p0(i64 8, ptr %2) #9
  call void @llvm.lifetime.end.p0(i64 2000, ptr %1) #9
  ret void
}