; Function Attrs: nounwind uwtable
define void @Dau_DsdTest44() local_unnamed_addr #3 {
  %1 = alloca [2000 x i8], align 16
  %2 = alloca i64, align 8
  call void @llvm.lifetime.start.p0(i64 2000, ptr nonnull %1) #29
  call void @llvm.lifetime.start.p0(i64 8, ptr nonnull %2) #29
  %3 = tail call i64 @Dau_Dsd6ToTruth(ptr noundef nonnull @.str.8)
  store i64 %3, ptr %2, align 8, !tbaa !29
  %4 = call i32 @Dau_DsdDecompose(ptr noundef nonnull %2, i32 noundef 6, i32 noundef 1, i32 noundef 1, ptr noundef nonnull %1)
  call void @llvm.lifetime.end.p0(i64 8, ptr nonnull %2) #29
  call void @llvm.lifetime.end.p0(i64 2000, ptr nonnull %1) #29
  ret void
}